---
triple:          'arm64-apple-darwin'
binary-path:     hw1_clean
relocations:
  - { offset: 0x3F, size: 0x8, addend: 0x0, symName: _static_map, symObjAddr: 0x1C1540, symBinAddr: 0x1000285A0, symSize: 0x0 }
  - { offset: 0xD278, size: 0x8, addend: 0x0, symName: __ZNSt3__119piecewise_constructE, symObjAddr: 0x1F4C0, symBinAddr: 0x100021420, symSize: 0x0 }
  - { offset: 0x1CEE0, size: 0x8, addend: 0x0, symName: __ZNSt3__124__put_character_sequenceB8ne180100IcNS_11char_traitsIcEEEERNS_13basic_ostreamIT_T0_EES7_PKS4_m, symObjAddr: 0x10B38, symBinAddr: 0x100011C90, symSize: 0x4E0 }
  - { offset: 0x1E443, size: 0x8, addend: 0x0, symName: __ZNSt3__111__introsortINS_17_ClassicAlgPolicyERNS_6__lessIvvEEP5PointLb0EEEvT1_S7_T0_NS_15iterator_traitsIS7_E15difference_typeEb, symObjAddr: 0x13A90, symBinAddr: 0x100014BD0, symSize: 0x11F8 }
  - { offset: 0x1ED0B, size: 0x8, addend: 0x0, symName: __ZNSt3__111__sift_downB8ne180100INS_17_ClassicAlgPolicyERNS_6__lessIvvEEP5PointEEvT1_OT0_NS_15iterator_traitsIS7_E15difference_typeES7_, symObjAddr: 0x1757C, symBinAddr: 0x1000186BC, symSize: 0x580 }
  - { offset: 0x1EEBA, size: 0x8, addend: 0x0, symName: __ZNSt3__131__partition_with_equals_on_leftB8ne180100INS_17_ClassicAlgPolicyEP5PointRNS_6__lessIvvEEEET0_S7_S7_T1_, symObjAddr: 0x152EC, symBinAddr: 0x10001642C, symSize: 0x5CC }
  - { offset: 0x1F0DB, size: 0x8, addend: 0x0, symName: __ZNSt3__132__partition_with_equals_on_rightB8ne180100INS_17_ClassicAlgPolicyEP5PointRNS_6__lessIvvEEEENS_4pairIT0_bEES8_S8_T1_, symObjAddr: 0x158B8, symBinAddr: 0x1000169F8, symSize: 0x580 }
  - { offset: 0x1F2C8, size: 0x8, addend: 0x0, symName: __ZNSt3__127__insertion_sort_incompleteB8ne180100INS_17_ClassicAlgPolicyERNS_6__lessIvvEEP5PointEEbT1_S7_T0_, symObjAddr: 0x15E38, symBinAddr: 0x100016F78, symSize: 0xB20 }
  - { offset: 0x2079B, size: 0x8, addend: 0x0, symName: __ZNSt3__120__throw_length_errorB8ne180100EPKc, symObjAddr: 0x18B4, symBinAddr: 0x10000301C, symSize: 0x54 }
  - { offset: 0x20A1E, size: 0x8, addend: 0x0, symName: __ZNSt3__127__tree_balance_after_insertB8ne180100IPNS_16__tree_node_baseIPvEEEEvT_S5_, symObjAddr: 0x43F4, symBinAddr: 0x100005B5C, symSize: 0x870 }
  - { offset: 0x24562, size: 0x8, addend: 0x0, symName: __ZNSt3__17getlineB8ne180100IcNS_11char_traitsIcEENS_9allocatorIcEEEERNS_13basic_istreamIT_T0_EES9_RNS_12basic_stringIS6_S7_T1_EES6_, symObjAddr: 0x1155C, symBinAddr: 0x1000126B4, symSize: 0x61C }
  - { offset: 0x24832, size: 0x8, addend: 0x0, symName: __ZNSt3__1plB8ne180100IcNS_11char_traitsIcEENS_9allocatorIcEEEENS_12basic_stringIT_T0_T1_EERKS9_SB_, symObjAddr: 0x10594, symBinAddr: 0x1000116EC, symSize: 0x31C }
  - { offset: 0x254AB, size: 0x8, addend: 0x0, symName: __ZNSt3__116__pad_and_outputB8ne180100IcNS_11char_traitsIcEEEENS_19ostreambuf_iteratorIT_T0_EES6_PKS4_S8_S8_RNS_8ios_baseES4_, symObjAddr: 0x11018, symBinAddr: 0x100012170, symSize: 0x544 }
  - { offset: 0x264BE, size: 0x8, addend: 0x0, symName: __ZNSt3__17__sort3B8ne180100INS_17_ClassicAlgPolicyERNS_6__lessIvvEEP5PointEEjT1_S7_S7_T0_, symObjAddr: 0x14C88, symBinAddr: 0x100015DC8, symSize: 0x664 }
  - { offset: 0x26739, size: 0x8, addend: 0x0, symName: __ZNSt3__17__sort5B8ne180100INS_17_ClassicAlgPolicyERNS_6__lessIvvEEP5PointEEvT1_S7_S7_S7_S7_T0_, symObjAddr: 0x16958, symBinAddr: 0x100017A98, symSize: 0xC24 }
  - { offset: 0x26C30, size: 0x8, addend: 0x0, symName: __ZNSt3__111__sort_heapB8ne180100INS_17_ClassicAlgPolicyERNS_6__lessIvvEEP5PointEEvT1_S7_OT0_, symObjAddr: 0x17AFC, symBinAddr: 0x100018C3C, symSize: 0x7BC }
  - { offset: 0x2989D, size: 0x8, addend: 0x0, symName: __ZSt28__throw_bad_array_new_lengthB8ne180100v, symObjAddr: 0x1954, symBinAddr: 0x1000030BC, symSize: 0x38 }
  - { offset: 0x29D4E, size: 0x8, addend: 0x0, symName: _goals, symObjAddr: 0x1C1580, symBinAddr: 0x1000285E0, symSize: 0x0 }
  - { offset: 0x2A2CC, size: 0x8, addend: 0x0, symName: _distances, symObjAddr: 0x1C15C0, symBinAddr: 0x100028620, symSize: 0x0 }
  - { offset: 0x2A90E, size: 0x8, addend: 0x0, symName: _state_info_map, symObjAddr: 0x1C1620, symBinAddr: 0x100028680, symSize: 0x0 }
  - { offset: 0x2D994, size: 0x8, addend: 0x0, symName: __ZN3tbb6detail2d07reverseIhE10byte_tableE, symObjAddr: 0x1F4C1, symBinAddr: 0x100021421, symSize: 0x0 }
  - { offset: 0x2E848, size: 0x8, addend: 0x0, symName: __ZL4DIRS, symObjAddr: 0x1C1900, symBinAddr: 0x100028980, symSize: 0x0 }
  - { offset: 0x2E85F, size: 0x8, addend: 0x0, symName: _.str, symObjAddr: 0x20420, symBinAddr: 0x100021540, symSize: 0x0 }
  - { offset: 0x2E891, size: 0x8, addend: 0x0, symName: __ZL10MOVE_CHARS, symObjAddr: 0x1C1940, symBinAddr: 0x1000289C0, symSize: 0x0 }
  - { offset: 0x2E8AE, size: 0x8, addend: 0x0, symName: _.str.7, symObjAddr: 0x20440, symBinAddr: 0x100021560, symSize: 0x0 }
  - { offset: 0x2E8DA, size: 0x8, addend: 0x0, symName: _.str.9, symObjAddr: 0x20460, symBinAddr: 0x100021580, symSize: 0x0 }
  - { offset: 0x2E8ED, size: 0x8, addend: 0x0, symName: _.str.10, symObjAddr: 0x20480, symBinAddr: 0x1000215A0, symSize: 0x0 }
  - { offset: 0x2E90E, size: 0x8, addend: 0x0, symName: _.str.11, symObjAddr: 0x204A0, symBinAddr: 0x1000215C0, symSize: 0x0 }
  - { offset: 0x2E92F, size: 0x8, addend: 0x0, symName: _.str.12, symObjAddr: 0x204C0, symBinAddr: 0x1000215E0, symSize: 0x0 }
  - { offset: 0x2E950, size: 0x8, addend: 0x0, symName: _.str.13, symObjAddr: 0x20580, symBinAddr: 0x1000216A0, symSize: 0x0 }
  - { offset: 0x2FEB1, size: 0x8, addend: 0x0, symName: __ZNSt3__16vectorINS_12basic_stringIcNS_11char_traitsIcEENS_9allocatorIcEEEENS4_IS6_EEE26__swap_out_circular_bufferERNS_14__split_bufferIS6_RS7_EE, symObjAddr: 0x12694, symBinAddr: 0x1000137EC, symSize: 0x2EC }
  - { offset: 0x30237, size: 0x8, addend: 0x0, symName: __ZNSt3__16vectorI5PointNS_9allocatorIS1_EEE26__swap_out_circular_bufferERNS_14__split_bufferIS1_RS3_EE, symObjAddr: 0x12FBC, symBinAddr: 0x1000140FC, symSize: 0x758 }
  - { offset: 0x30507, size: 0x8, addend: 0x0, symName: __ZNSt3__16vectorI4NodeN3tbb6detail2d123cache_aligned_allocatorIS1_EEE26__swap_out_circular_bufferERNS_14__split_bufferIS1_RS6_EE, symObjAddr: 0x1AC48, symBinAddr: 0x10001BD88, symSize: 0x454 }
  - { offset: 0x3089A, size: 0x8, addend: 0x0, symName: __ZN3tbb6detail2d225concurrent_unordered_baseINS1_31concurrent_unordered_map_traitsI5State9StateInfo11StateHasherNSt3__18equal_toIS4_EENS0_2d113tbb_allocatorINS7_4pairIKS4_S5_EEEELb0EEEE11create_nodeIJSE_EEEPNS1_10value_nodeISE_mEEmDpOT_, symObjAddr: 0x1D418, symBinAddr: 0x10001E3EC, symSize: 0x4B4 }
  - { offset: 0x30EDD, size: 0x8, addend: 0x0, symName: __ZNSt3__16vectorINS_12basic_stringIcNS_11char_traitsIcEENS_9allocatorIcEEEENS4_IS6_EEED1B8ne180100Ev, symObjAddr: 0x0, symBinAddr: 0x100001768, symSize: 0x14C }
  - { offset: 0x30F69, size: 0x8, addend: 0x0, symName: __ZNSt3__16vectorINS_12basic_stringIcNS_11char_traitsIcEENS_9allocatorIcEEEENS4_IS6_EEE16__destroy_vectorclB8ne180100Ev, symObjAddr: 0x15C, symBinAddr: 0x1000018C4, symSize: 0x1F4 }
  - { offset: 0x314F0, size: 0x8, addend: 0x0, symName: __ZNSt3__13setI5PointNS_4lessIS1_EENS_9allocatorIS1_EEED1B8ne180100Ev, symObjAddr: 0x350, symBinAddr: 0x100001AB8, symSize: 0x50 }
  - { offset: 0x3159F, size: 0x8, addend: 0x0, symName: __ZNSt3__16__treeI5PointNS_4lessIS1_EENS_9allocatorIS1_EEE7destroyEPNS_11__tree_nodeIS1_PvEE, symObjAddr: 0x3A0, symBinAddr: 0x100001B08, symSize: 0x94 }
  - { offset: 0x31927, size: 0x8, addend: 0x0, symName: __ZNSt3__113unordered_mapINS_4pairI5PointS2_EEi15PointPairHasherNS_8equal_toIS3_EENS_9allocatorINS1_IKS3_iEEEEED1B8ne180100Ev, symObjAddr: 0x434, symBinAddr: 0x100001B9C, symSize: 0xB4 }
  - { offset: 0x31BF7, size: 0x8, addend: 0x0, symName: __ZN3tbb6detail2d224concurrent_unordered_mapI5State9StateInfo11StateHasherNSt3__18equal_toIS3_EENS0_2d113tbb_allocatorINS6_4pairIKS3_S4_EEEEED1Ev, symObjAddr: 0x4E8, symBinAddr: 0x100001C50, symSize: 0x4 }
  - { offset: 0x31C24, size: 0x8, addend: 0x0, symName: __ZN3tbb6detail2d224concurrent_unordered_mapI5State9StateInfo11StateHasherNSt3__18equal_toIS3_EENS0_2d113tbb_allocatorINS6_4pairIKS3_S4_EEEEED1Ev, symObjAddr: 0x4E8, symBinAddr: 0x100001C50, symSize: 0x4 }
  - { offset: 0x31C41, size: 0x8, addend: 0x0, symName: __ZN3tbb6detail2d224concurrent_unordered_mapI5State9StateInfo11StateHasherNSt3__18equal_toIS3_EENS0_2d113tbb_allocatorINS6_4pairIKS3_S4_EEEEED1Ev, symObjAddr: 0x4E8, symBinAddr: 0x100001C50, symSize: 0x4 }
  - { offset: 0x31C54, size: 0x8, addend: 0x0, symName: __ZN3tbb6detail2d225concurrent_unordered_baseINS1_31concurrent_unordered_map_traitsI5State9StateInfo11StateHasherNSt3__18equal_toIS4_EENS0_2d113tbb_allocatorINS7_4pairIKS4_S5_EEEELb0EEEED2Ev, symObjAddr: 0x4EC, symBinAddr: 0x100001C54, symSize: 0x18C }
  - { offset: 0x3233F, size: 0x8, addend: 0x0, symName: __ZN3tbb6detail2d225concurrent_unordered_baseINS1_31concurrent_unordered_map_traitsI5State9StateInfo11StateHasherNSt3__18equal_toIS4_EENS0_2d113tbb_allocatorINS7_4pairIKS4_S5_EEEELb0EEEE14internal_clearEv, symObjAddr: 0x678, symBinAddr: 0x100001DE0, symSize: 0x234 }
  - { offset: 0x329C7, size: 0x8, addend: 0x0, symName: __ZN3tbb6detail2d113segment_tableINSt3__16atomicIPNS0_2d29list_nodeImEEEENS1_13tbb_allocatorINS3_4pairIK5State9StateInfoEEEENS5_25concurrent_unordered_baseINS5_31concurrent_unordered_map_traitsISC_SE_11StateHasherNS3_8equal_toISC_EESG_Lb0EEEE23unordered_segment_tableELm63EE11clear_tableEv, symObjAddr: 0xD10, symBinAddr: 0x100002478, symSize: 0x774 }
  - { offset: 0x32DDD, size: 0x8, addend: 0x0, symName: __ZNSt3__14pairIK5State9StateInfoED2Ev, symObjAddr: 0x8AC, symBinAddr: 0x100002014, symSize: 0x1AC }
  - { offset: 0x334BD, size: 0x8, addend: 0x0, symName: __ZN9StateInfoD1Ev, symObjAddr: 0xA58, symBinAddr: 0x1000021C0, symSize: 0x11C }
  - { offset: 0x337B9, size: 0x8, addend: 0x0, symName: __ZN5StateD1Ev, symObjAddr: 0xB74, symBinAddr: 0x1000022DC, symSize: 0xD0 }
  - { offset: 0x33985, size: 0x8, addend: 0x0, symName: __ZNSt3__16vectorI5PointNS_9allocatorIS1_EEED1B8ne180100Ev, symObjAddr: 0xC44, symBinAddr: 0x1000023AC, symSize: 0xCC }
  - { offset: 0x33D58, size: 0x8, addend: 0x0, symName: __ZNSt3__16vectorI5PointNS_9allocatorIS1_EEEC1B8ne180100ESt16initializer_listIS1_E, symObjAddr: 0x1484, symBinAddr: 0x100002BEC, symSize: 0x198 }
  - { offset: 0x3409E, size: 0x8, addend: 0x0, symName: __ZNSt3__16vectorI5PointNS_9allocatorIS1_EEE18__construct_at_endIPKS1_S7_EEvT_T0_m, symObjAddr: 0x161C, symBinAddr: 0x100002D84, symSize: 0x154 }
  - { offset: 0x3447A, size: 0x8, addend: 0x0, symName: __ZNKSt3__16vectorI5PointNS_9allocatorIS1_EEE20__throw_length_errorB8ne180100Ev, symObjAddr: 0x189C, symBinAddr: 0x100003004, symSize: 0x18 }
  - { offset: 0x344A4, size: 0x8, addend: 0x0, symName: __ZNSt3__120__throw_length_errorB8ne180100EPKc, symObjAddr: 0x18B4, symBinAddr: 0x10000301C, symSize: 0x54 }
  - { offset: 0x34665, size: 0x8, addend: 0x0, symName: __ZNSt3__128__exception_guard_exceptionsINS_6vectorI5PointNS_9allocatorIS2_EEE16__destroy_vectorEED1B8ne180100Ev, symObjAddr: 0x1770, symBinAddr: 0x100002ED8, symSize: 0x12C }
  - { offset: 0x347EC, size: 0x8, addend: 0x0, symName: __ZNSt12length_errorC1B8ne180100EPKc, symObjAddr: 0x1908, symBinAddr: 0x100003070, symSize: 0x4C }
  - { offset: 0x34872, size: 0x8, addend: 0x0, symName: __ZNKSt3__112basic_stringIcNS_11char_traitsIcEENS_9allocatorIcEEE20__throw_length_errorB8ne180100Ev, symObjAddr: 0x198C, symBinAddr: 0x1000030F4, symSize: 0x18 }
  - { offset: 0x3489C, size: 0x8, addend: 0x0, symName: __Z18manhattan_distanceRK5PointS1_, symObjAddr: 0x19A4, symBinAddr: 0x10000310C, symSize: 0xD8 }
  - { offset: 0x348A7, size: 0x8, addend: 0x0, symName: __Z18manhattan_distanceRK5PointS1_, symObjAddr: 0x19A4, symBinAddr: 0x10000310C, symSize: 0xD8 }
  - { offset: 0x34A44, size: 0x8, addend: 0x0, symName: __Z16calculate_h_costRK5State, symObjAddr: 0x1A7C, symBinAddr: 0x1000031E4, symSize: 0x438 }
  - { offset: 0x34C47, size: 0x8, addend: 0x0, symName: __ZNSt3__112__hash_tableINS_17__hash_value_typeINS_4pairI5PointS3_EEiEENS_22__unordered_map_hasherIS4_S5_15PointPairHasherNS_8equal_toIS4_EELb1EEENS_21__unordered_map_equalIS4_S5_S9_S7_Lb1EEENS_9allocatorIS5_EEE25__emplace_unique_key_argsIS4_JRKNS_21piecewise_construct_tENS_5tupleIJOS4_EEENSK_IJEEEEEENS2_INS_15__hash_iteratorIPNS_11__hash_nodeIS5_PvEEEEbEERKT_DpOT0_, symObjAddr: 0x1EB4, symBinAddr: 0x10000361C, symSize: 0x7D4 }
  - { offset: 0x35C3A, size: 0x8, addend: 0x0, symName: __ZNSt3__112__hash_tableINS_17__hash_value_typeINS_4pairI5PointS3_EEiEENS_22__unordered_map_hasherIS4_S5_15PointPairHasherNS_8equal_toIS4_EELb1EEENS_21__unordered_map_equalIS4_S5_S9_S7_Lb1EEENS_9allocatorIS5_EEE11__do_rehashILb1EEEvm, symObjAddr: 0x2688, symBinAddr: 0x100003DF0, symSize: 0x3E0 }
  - { offset: 0x36256, size: 0x8, addend: 0x0, symName: __Z11is_walkableRK5PointRKNSt3__16vectorIS_NS2_9allocatorIS_EEEE, symObjAddr: 0x2A68, symBinAddr: 0x1000041D0, symSize: 0x2A4 }
  - { offset: 0x36910, size: 0x8, addend: 0x0, symName: __Z12is_dead_spotRK5PointS1_RKNSt3__16vectorIS_NS2_9allocatorIS_EEEE, symObjAddr: 0x2D0C, symBinAddr: 0x100004474, symSize: 0x16E8 }
  - { offset: 0x37F03, size: 0x8, addend: 0x0, symName: __Z16find_player_pathRK5PointS1_RKNSt3__16vectorIS_NS2_9allocatorIS_EEEE, symObjAddr: 0x4C64, symBinAddr: 0x1000063CC, symSize: 0x1D60 }
  - { offset: 0x39A5B, size: 0x8, addend: 0x0, symName: __ZNSt3__15dequeI5PointNS_9allocatorIS1_EEE19__add_back_capacityEv, symObjAddr: 0x6CF0, symBinAddr: 0x100008458, symSize: 0x14D4 }
  - { offset: 0x3B268, size: 0x8, addend: 0x0, symName: __ZNKSt3__15dequeI5PointNS_9allocatorIS1_EEE18__annotate_from_toB8ne180100EmmNS4_22__asan_annotation_typeENS4_23__asan_annotation_placeE, symObjAddr: 0x69C4, symBinAddr: 0x10000812C, symSize: 0x32C }
  - { offset: 0x3B515, size: 0x8, addend: 0x0, symName: __ZNSt3__15dequeI5PointNS_9allocatorIS1_EEE9pop_frontEv, symObjAddr: 0x8FC4, symBinAddr: 0x10000A280, symSize: 0x188 }
  - { offset: 0x3B84B, size: 0x8, addend: 0x0, symName: __ZNSt3__15dequeI5PointNS_9allocatorIS1_EEED2B8ne180100Ev, symObjAddr: 0x91E0, symBinAddr: 0x10000A408, symSize: 0x278 }
  - { offset: 0x3C542, size: 0x8, addend: 0x0, symName: __ZNSt3__114__split_bufferIP5PointNS_9allocatorIS2_EEE9push_backEOS2_, symObjAddr: 0x81C4, symBinAddr: 0x10000992C, symSize: 0x4A8 }
  - { offset: 0x3CA2F, size: 0x8, addend: 0x0, symName: __ZNSt3__114__split_bufferIP5PointNS_9allocatorIS2_EEE10push_frontEOS2_, symObjAddr: 0x866C, symBinAddr: 0x100009DD4, symSize: 0x4AC }
  - { offset: 0x3D459, size: 0x8, addend: 0x0, symName: __ZNKSt3__15dequeI5PointNS_9allocatorIS1_EEE17__annotate_deleteB8ne180100Ev, symObjAddr: 0x9458, symBinAddr: 0x10000A680, symSize: 0x1F4 }
  - { offset: 0x3D67A, size: 0x8, addend: 0x0, symName: __Z14init_distancesv, symObjAddr: 0x964C, symBinAddr: 0x10000A874, symSize: 0x1338 }
  - { offset: 0x3FF51, size: 0x8, addend: 0x0, symName: _main, symObjAddr: 0xA984, symBinAddr: 0x10000BBAC, symSize: 0x2D50 }
  - { offset: 0x43657, size: 0x8, addend: 0x0, symName: __ZNSt3__114basic_ifstreamIcNS_11char_traitsIcEEEC1EPKcj, symObjAddr: 0xD6D4, symBinAddr: 0x10000E8FC, symSize: 0x2B4 }
  - { offset: 0x43738, size: 0x8, addend: 0x0, symName: __ZNSt3__16vectorINS_12basic_stringIcNS_11char_traitsIcEENS_9allocatorIcEEEENS4_IS6_EEE22__construct_one_at_endB8ne180100IJRKS6_EEEvDpOT_, symObjAddr: 0x11B78, symBinAddr: 0x100012CD0, symSize: 0x400 }
  - { offset: 0x43A10, size: 0x8, addend: 0x0, symName: __ZNSt3__16vectorINS_12basic_stringIcNS_11char_traitsIcEENS_9allocatorIcEEEENS4_IS6_EEE21__push_back_slow_pathIRKS6_EEPS6_OT_, symObjAddr: 0x11F78, symBinAddr: 0x1000130D0, symSize: 0x500 }
  - { offset: 0x43F73, size: 0x8, addend: 0x0, symName: __ZNSt3__16vectorI5PointNS_9allocatorIS1_EEE21__push_back_slow_pathIS1_EEPS1_OT_, symObjAddr: 0x12AC0, symBinAddr: 0x100013C00, symSize: 0x4FC }
  - { offset: 0x44435, size: 0x8, addend: 0x0, symName: __ZNSt3__16__treeI5PointNS_4lessIS1_EENS_9allocatorIS1_EEE25__emplace_unique_key_argsIS1_JS1_EEENS_4pairINS_15__tree_iteratorIS1_PNS_11__tree_nodeIS1_PvEElEEbEERKT_DpOT0_, symObjAddr: 0x13714, symBinAddr: 0x100014854, symSize: 0x37C }
  - { offset: 0x446E0, size: 0x8, addend: 0x0, symName: __ZNSt3__16vectorI5PointNS_9allocatorIS1_EEE16__init_with_sizeB8ne180100IPS1_S6_EEvT_T0_m, symObjAddr: 0x1B750, symBinAddr: 0x10001C878, symSize: 0x298 }
  - { offset: 0x44925, size: 0x8, addend: 0x0, symName: __ZN3tbb6detail2d118aggregator_genericINS1_25concurrent_priority_queueI4NodeNSt3__14lessIS4_EENS1_23cache_aligned_allocatorIS4_EEE13cpq_operationEE7executeINSA_7functorEEEvPSB_RT_b, symObjAddr: 0x184E4, symBinAddr: 0x100019624, symSize: 0x26C }
  - { offset: 0x44E8F, size: 0x8, addend: 0x0, symName: __ZNSt3__14pairIK5State9StateInfoEC2B8ne180100ILb1ELi0EEERS2_RKS3_, symObjAddr: 0x1D96C, symBinAddr: 0x10001E940, symSize: 0x308 }
  - { offset: 0x452E6, size: 0x8, addend: 0x0, symName: __ZN3tbb6detail2d225concurrent_unordered_baseINS1_31concurrent_unordered_map_traitsI5State9StateInfo11StateHasherNSt3__18equal_toIS4_EENS0_2d113tbb_allocatorINS7_4pairIKS4_S5_EEEELb0EEEE21internal_insert_valueISE_EENSC_INS1_15solist_iteratorISH_SE_EEbEEOT_, symObjAddr: 0x1BB3C, symBinAddr: 0x10001CB10, symSize: 0x284 }
  - { offset: 0x4558E, size: 0x8, addend: 0x0, symName: __ZN3tbb6detail2d225concurrent_unordered_baseINS1_31concurrent_unordered_map_traitsI5State9StateInfo11StateHasherNSt3__18equal_toIS4_EENS0_2d113tbb_allocatorINS7_4pairIKS4_S5_EEEELb0EEEE13internal_findIS4_EEPNS1_10value_nodeISE_mEERKT_, symObjAddr: 0x1DF48, symBinAddr: 0x10001EF1C, symSize: 0x4F4 }
  - { offset: 0x4595A, size: 0x8, addend: 0x0, symName: __ZNSt3__16vectorI5PointNS_9allocatorIS1_EEE18__assign_with_sizeB8ne180100IPS1_S6_EEvT_T0_l, symObjAddr: 0x1DC74, symBinAddr: 0x10001EC48, symSize: 0x2D4 }
  - { offset: 0x45F00, size: 0x8, addend: 0x0, symName: __ZNSt3__16vectorI4NodeN3tbb6detail2d123cache_aligned_allocatorIS1_EEE16__destroy_vectorclB8ne180100Ev, symObjAddr: 0x182B8, symBinAddr: 0x1000193F8, symSize: 0x22C }
  - { offset: 0x46369, size: 0x8, addend: 0x0, symName: __ZNSt3__18optionalI5StateED1Ev, symObjAddr: 0x108B0, symBinAddr: 0x100011A08, symSize: 0xFC }
  - { offset: 0x465ED, size: 0x8, addend: 0x0, symName: __ZN3tbb6detail2d110task_arenaD1Ev, symObjAddr: 0x109AC, symBinAddr: 0x100011B04, symSize: 0xAC }
  - { offset: 0x466F8, size: 0x8, addend: 0x0, symName: __ZNSt3__114basic_ifstreamIcNS_11char_traitsIcEEED1Ev, symObjAddr: 0x10A58, symBinAddr: 0x100011BB0, symSize: 0xE0 }
  - { offset: 0x470D9, size: 0x8, addend: 0x0, symName: _main.omp_outlined, symObjAddr: 0xDA58, symBinAddr: 0x10000EBB0, symSize: 0x2B3C }
  - { offset: 0x4B262, size: 0x8, addend: 0x0, symName: __ZNSt3__112basic_stringIcNS_11char_traitsIcEENS_9allocatorIcEEE25__init_copy_ctor_externalEPKcm, symObjAddr: 0x12574, symBinAddr: 0x1000136CC, symSize: 0x120 }
  - { offset: 0x4B5F4, size: 0x8, addend: 0x0, symName: __ZNSt3__16vectorINS_12basic_stringIcNS_11char_traitsIcEENS_9allocatorIcEEEENS4_IS6_EEE21_ConstructTransactionD1B8ne180100Ev, symObjAddr: 0x12478, symBinAddr: 0x1000135D0, symSize: 0xFC }
  - { offset: 0x4B923, size: 0x8, addend: 0x0, symName: __ZNSt3__16vectorI5PointNS_9allocatorIS1_EEE21__push_back_slow_pathIS1_EEPS1_OT_, symObjAddr: 0x12AC0, symBinAddr: 0x100013C00, symSize: 0x4FC }
  - { offset: 0x4B92E, size: 0x8, addend: 0x0, symName: __ZNSt3__114__split_bufferINS_12basic_stringIcNS_11char_traitsIcEENS_9allocatorIcEEEERNS4_IS6_EEED1Ev, symObjAddr: 0x12980, symBinAddr: 0x100013AD8, symSize: 0x128 }
  - { offset: 0x4C453, size: 0x8, addend: 0x0, symName: __ZN3tbb6detail2d125concurrent_priority_queueI4NodeNSt3__14lessIS3_EENS1_23cache_aligned_allocatorIS3_EEE17handle_operationsEPNS9_13cpq_operationE, symObjAddr: 0x18750, symBinAddr: 0x100019890, symSize: 0xC44 }
  - { offset: 0x4D450, size: 0x8, addend: 0x0, symName: __ZNSt3__16vectorI5PointNS_9allocatorIS1_EEE13__vdeallocateEv, symObjAddr: 0x19EA8, symBinAddr: 0x10001AFE8, symSize: 0x154 }
  - { offset: 0x4D6B7, size: 0x8, addend: 0x0, symName: __ZNSt3__16vectorI4NodeN3tbb6detail2d123cache_aligned_allocatorIS1_EEE17__destruct_at_endB8ne180100EPS1_, symObjAddr: 0x19FFC, symBinAddr: 0x10001B13C, symSize: 0x1D0 }
  - { offset: 0x4D9F3, size: 0x8, addend: 0x0, symName: __ZNSt3__16vectorI4NodeN3tbb6detail2d123cache_aligned_allocatorIS1_EEE22__construct_one_at_endB8ne180100IJRKS1_EEEvDpOT_, symObjAddr: 0x1A1CC, symBinAddr: 0x10001B30C, symSize: 0x478 }
  - { offset: 0x4DD27, size: 0x8, addend: 0x0, symName: __ZNSt3__16vectorI4NodeN3tbb6detail2d123cache_aligned_allocatorIS1_EEE21__push_back_slow_pathIRKS1_EEPS1_OT_, symObjAddr: 0x1A644, symBinAddr: 0x10001B784, symSize: 0x508 }
  - { offset: 0x4E0F8, size: 0x8, addend: 0x0, symName: __ZNSt3__16vectorI4NodeN3tbb6detail2d123cache_aligned_allocatorIS1_EEE21__push_back_slow_pathIS1_EEPS1_OT_, symObjAddr: 0x1B238, symBinAddr: 0x10001C360, symSize: 0x518 }
  - { offset: 0x4E4B3, size: 0x8, addend: 0x0, symName: __ZN3tbb6detail2d125concurrent_priority_queueI4NodeNSt3__14lessIS3_EENS1_23cache_aligned_allocatorIS3_EEE6reheapEv, symObjAddr: 0x19394, symBinAddr: 0x10001A4D4, symSize: 0x5E4 }
  - { offset: 0x4E7F9, size: 0x8, addend: 0x0, symName: __ZN3tbb6detail2d125concurrent_priority_queueI4NodeNSt3__14lessIS3_EENS1_23cache_aligned_allocatorIS3_EEE7heapifyEv, symObjAddr: 0x19978, symBinAddr: 0x10001AAB8, symSize: 0x530 }
  - { offset: 0x4EC97, size: 0x8, addend: 0x0, symName: __ZNSt3__16vectorI4NodeN3tbb6detail2d123cache_aligned_allocatorIS1_EEE21_ConstructTransactionD1B8ne180100Ev, symObjAddr: 0x1AB4C, symBinAddr: 0x10001BC8C, symSize: 0xFC }
  - { offset: 0x4EF76, size: 0x8, addend: 0x0, symName: __ZNSt3__114__split_bufferI4NodeRN3tbb6detail2d123cache_aligned_allocatorIS1_EEED2Ev, symObjAddr: 0x1B0B4, symBinAddr: 0x10001C1DC, symSize: 0x184 }
  - { offset: 0x4F246, size: 0x8, addend: 0x0, symName: __ZNSt3__114__split_bufferI4NodeRN3tbb6detail2d123cache_aligned_allocatorIS1_EEED2Ev, symObjAddr: 0x1B0B4, symBinAddr: 0x10001C1DC, symSize: 0x184 }
  - { offset: 0x4F751, size: 0x8, addend: 0x0, symName: __ZN3tbb6detail2d225concurrent_unordered_baseINS1_31concurrent_unordered_map_traitsI5State9StateInfo11StateHasherNSt3__18equal_toIS4_EENS0_2d113tbb_allocatorINS7_4pairIKS4_S5_EEEELb0EEEE15internal_insertIRSE_ZNSH_21internal_insert_valueISE_EENSC_INS1_15solist_iteratorISH_SE_EEbEEOT_EUlmE_EENSH_27internal_insert_return_typeESP_T0_, symObjAddr: 0x1BDC0, symBinAddr: 0x10001CD94, symSize: 0x9EC }
  - { offset: 0x50404, size: 0x8, addend: 0x0, symName: __ZNK11StateHasherclERK5State, symObjAddr: 0x1C7AC, symBinAddr: 0x10001D780, symSize: 0x1CC }
  - { offset: 0x50683, size: 0x8, addend: 0x0, symName: __ZN3tbb6detail2d225concurrent_unordered_baseINS1_31concurrent_unordered_map_traitsI5State9StateInfo11StateHasherNSt3__18equal_toIS4_EENS0_2d113tbb_allocatorINS7_4pairIKS4_S5_EEEELb0EEEE10get_bucketEm, symObjAddr: 0x1C978, symBinAddr: 0x10001D94C, symSize: 0x294 }
  - { offset: 0x512C0, size: 0x8, addend: 0x0, symName: __ZN3tbb6detail2d225concurrent_unordered_baseINS1_31concurrent_unordered_map_traitsI5State9StateInfo11StateHasherNSt3__18equal_toIS4_EENS0_2d113tbb_allocatorINS7_4pairIKS4_S5_EEEELb0EEEE11init_bucketEm, symObjAddr: 0x1CC0C, symBinAddr: 0x10001DBE0, symSize: 0x664 }
  - { offset: 0x52462, size: 0x8, addend: 0x0, symName: __ZN3tbb6detail2d225concurrent_unordered_baseINS1_31concurrent_unordered_map_traitsI5State9StateInfo11StateHasherNSt3__18equal_toIS4_EENS0_2d113tbb_allocatorINS7_4pairIKS4_S5_EEEELb0EEEE17insert_dummy_nodeEPNS1_9list_nodeImEEm, symObjAddr: 0x1D270, symBinAddr: 0x10001E244, symSize: 0x1A8 }
  - { offset: 0x52D41, size: 0x8, addend: 0x0, symName: __ZN3tbb6detail2d010raii_guardIZNS0_2d225concurrent_unordered_baseINS3_31concurrent_unordered_map_traitsI5State9StateInfo11StateHasherNSt3__18equal_toIS6_EENS0_2d113tbb_allocatorINS9_4pairIKS6_S7_EEEELb0EEEE11create_nodeIJSG_EEEPNS3_10value_nodeISG_mEEmDpOT_EUlvE_ED1Ev, symObjAddr: 0x1D8CC, symBinAddr: 0x10001E8A0, symSize: 0xA0 }
...
